; Function Attrs: mustprogress nounwind uwtable
define internal fastcc noundef zeroext i1 @_ZN5clang19RecursiveASTVisitorIN12_GLOBAL__N_116CacheInitializerEE21VisitOMPPrivateClauseEPNS_16OMPPrivateClauseE(ptr noundef nonnull align 1 dereferenceable(1) %0, ptr noundef nonnull readonly %1) unnamed_addr #0 align 2 {
  %3 = getelementptr inbounds nuw i8, ptr %1, i64 16
  %4 = load i32, ptr %3, align 4
  %5 = zext i32 %4 to i64
  %.idx = shl nuw nsw i64 %5, 3
  %6 = getelementptr inbounds nuw i8, ptr %1, i64 %.idx
  %.ptr24 = getelementptr inbounds nuw i8, ptr %6, i64 24
  %.not.i16 = icmp eq i32 %4, 0
  br i1 %.not.i16, label %_ZN5clang19RecursiveASTVisitorIN12_GLOBAL__N_116CacheInitializerEE18VisitOMPClauseListINS_16OMPPrivateClauseEEEbPT_.exit, label %.lr.ph.preheader

.lr.ph.preheader:                                 ; preds = %2
  %.ptr.ptr = getelementptr inbounds nuw i8, ptr %1, i64 24
  br label %.lr.ph

7:                                                ; preds = %.lr.ph
  %8 = getelementptr inbounds nuw i8, ptr %.010.i17, i64 8
  %.not.i = icmp eq ptr %8, %.ptr24
  br i1 %.not.i, label %._crit_edge, label %.lr.ph

.lr.ph:                                           ; preds = %.lr.ph.preheader, %7
  %.010.i17 = phi ptr [ %8, %7 ], [ %.ptr.ptr, %.lr.ph.preheader ]
  %9 = load ptr, ptr %.010.i17, align 8
  %10 = tail call fastcc noundef zeroext i1 @_ZN5clang19RecursiveASTVisitorIN12_GLOBAL__N_116CacheInitializerEE12TraverseStmtEPNS_4StmtEPN4llvm15SmallVectorImplINS6_14PointerIntPairIS5_Lj1EbNS6_21PointerLikeTypeTraitsIS5_EENS6_18PointerIntPairInfoIS5_Lj1ESA_EEEEEE(ptr noundef nonnull align 1 dereferenceable(1) %0, ptr noundef %9, ptr noundef null)
  br i1 %10, label %7, label %_ZN5clang19RecursiveASTVisitorIN12_GLOBAL__N_116CacheInitializerEE18VisitOMPClauseListINS_16OMPPrivateClauseEEEbPT_.exit

._crit_edge:                                      ; preds = %7
  %.pre = load i32, ptr %3, align 4
  %11 = zext i32 %.pre to i64
  %.idx25 = shl nuw nsw i64 %11, 3
  %12 = getelementptr inbounds nuw i8, ptr %1, i64 %.idx25
  %.ptr26 = getelementptr inbounds nuw i8, ptr %12, i64 24
  %13 = getelementptr inbounds nuw ptr, ptr %.ptr26, i64 %11
  %.not18 = icmp eq i32 %.pre, 0
  br i1 %.not18, label %_ZN5clang19RecursiveASTVisitorIN12_GLOBAL__N_116CacheInitializerEE18VisitOMPClauseListINS_16OMPPrivateClauseEEEbPT_.exit, label %.lr.ph21

.lr.ph21:                                         ; preds = %._crit_edge, %.lr.ph21
  %.01119 = phi ptr [ %16, %.lr.ph21 ], [ %.ptr26, %._crit_edge ]
  %14 = load ptr, ptr %.01119, align 8
  %15 = tail call fastcc noundef zeroext i1 @_ZN5clang19RecursiveASTVisitorIN12_GLOBAL__N_116CacheInitializerEE12TraverseStmtEPNS_4StmtEPN4llvm15SmallVectorImplINS6_14PointerIntPairIS5_Lj1EbNS6_21PointerLikeTypeTraitsIS5_EENS6_18PointerIntPairInfoIS5_Lj1ESA_EEEEEE(ptr noundef nonnull align 1 dereferenceable(1) %0, ptr noundef %14, ptr noundef null)
  %16 = getelementptr inbounds nuw i8, ptr %.01119, i64 8
  %.not = icmp ne ptr %16, %13
  %or.cond.not = select i1 %15, i1 %.not, i1 false
  br i1 %or.cond.not, label %.lr.ph21, label %_ZN5clang19RecursiveASTVisitorIN12_GLOBAL__N_116CacheInitializerEE18VisitOMPClauseListINS_16OMPPrivateClauseEEEbPT_.exit

_ZN5clang19RecursiveASTVisitorIN12_GLOBAL__N_116CacheInitializerEE18VisitOMPClauseListINS_16OMPPrivateClauseEEEbPT_.exit: ; preds = %.lr.ph, %.lr.ph21, %2, %._crit_edge
  %.0 = phi i1 [ true, %._crit_edge ], [ true, %2 ], [ %15, %.lr.ph21 ], [ false, %.lr.ph ]
  ret i1 %.0
}